target datalayout = "e-m:e-p270:32:32-p271:32:32-p272:64:64-i64:64-i128:128-f80:128-n8:16:32:64-S128"
target triple = "x86_64-pc-linux-gnu"

%"class.Ipopt::DenseSymMatrix" = type <{ %"class.Ipopt::SymMatrix", ptr, ptr, i8, [7 x i8] }>
%"class.Ipopt::SymMatrix" = type { %"class.Ipopt::Matrix.base", ptr }
%"class.Ipopt::Matrix.base" = type <{ %"class.Ipopt::TaggedObject", %"class.Ipopt::SmartPtr", i32, i8 }>
%"class.Ipopt::TaggedObject" = type { %"class.Ipopt::ReferencedObject.base", %"class.Ipopt::Subject", i32, i32 }
%"class.Ipopt::ReferencedObject.base" = type <{ ptr, i32 }>
%"class.Ipopt::Subject" = type { ptr, %"class.std::vector" }
%"class.std::vector" = type { %"struct.std::_Vector_base" }
%"struct.std::_Vector_base" = type { %"struct.std::_Vector_base<Ipopt::Observer *, std::allocator<Ipopt::Observer *>>::_Vector_impl" }
%"struct.std::_Vector_base<Ipopt::Observer *, std::allocator<Ipopt::Observer *>>::_Vector_impl" = type { %"struct.std::_Vector_base<Ipopt::Observer *, std::allocator<Ipopt::Observer *>>::_Vector_impl_data" }
%"struct.std::_Vector_base<Ipopt::Observer *, std::allocator<Ipopt::Observer *>>::_Vector_impl_data" = type { ptr, ptr, ptr }
%"class.Ipopt::SmartPtr" = type { ptr }
%"class.Ipopt::MatrixSpace" = type { %"class.Ipopt::ReferencedObject.base", i32, i32, [4 x i8] }

; Function Attrs: mustprogress nounwind uwtable
define linkonce_odr noundef i32 @_ZNK5Ipopt11MatrixSpace5NRowsEv(ptr noundef nonnull align 8 dereferenceable(20) %0) #5 comdat align 2 {
  %2 = alloca ptr, align 8
  store ptr %0, ptr %2, align 8, !tbaa !165
  %3 = load ptr, ptr %2, align 8
  %4 = getelementptr inbounds nuw %"class.Ipopt::MatrixSpace", ptr %3, i32 0, i32 1
  %5 = load i32, ptr %4, align 4, !tbaa !175
  ret i32 %5
}

; Function Attrs: mustprogress nounwind uwtable
define linkonce_odr noundef i32 @_ZNK5Ipopt14SymMatrixSpace3DimEv(ptr noundef nonnull align 8 dereferenceable(20) %0) #5 comdat align 2 {
  %2 = alloca ptr, align 8
  store ptr %0, ptr %2, align 8, !tbaa !35
  %3 = load ptr, ptr %2, align 8
  %4 = call noundef i32 @_ZNK5Ipopt11MatrixSpace5NRowsEv(ptr noundef nonnull align 8 dereferenceable(20) %3)
  ret i32 %4
}

; Function Attrs: inlinehint mustprogress uwtable
define linkonce_odr noundef i32 @_ZNK5Ipopt9SymMatrix3DimEv(ptr noundef nonnull align 8 dereferenceable(80) %0) #2 comdat align 2 {
  %2 = alloca ptr, align 8
  store ptr %0, ptr %2, align 8, !tbaa !33
  %3 = load ptr, ptr %2, align 8
  %4 = getelementptr inbounds nuw %"class.Ipopt::SymMatrix", ptr %3, i32 0, i32 1
  %5 = load ptr, ptr %4, align 8, !tbaa !36
  %6 = call noundef i32 @_ZNK5Ipopt14SymMatrixSpace3DimEv(ptr noundef nonnull align 8 dereferenceable(20) %5)
  ret i32 %6
}

; Function Attrs: mustprogress uwtable
define noundef zeroext i1 @_ZNK5Ipopt14DenseSymMatrix19HasValidNumbersImplEv(ptr noundef nonnull align 8 dereferenceable(97) %0) unnamed_addr #1 align 2 {
  %2 = alloca ptr, align 8
  %3 = alloca double, align 8
  %4 = alloca i32, align 4
  %5 = alloca i32, align 4
  %6 = alloca i32, align 4
  %7 = alloca i32, align 4
  store ptr %0, ptr %2, align 8, !tbaa !3
  %8 = load ptr, ptr %2, align 8
  call void @llvm.lifetime.start.p0(i64 8, ptr %3) #17
  store double 0.000000e+00, ptr %3, align 8, !tbaa !39
  call void @llvm.lifetime.start.p0(i64 4, ptr %4) #17
  %9 = call noundef i32 @_ZNK5Ipopt9SymMatrix3DimEv(ptr noundef nonnull align 8 dereferenceable(80) %8)
  store i32 %9, ptr %4, align 4, !tbaa !57
  call void @llvm.lifetime.start.p0(i64 4, ptr %5) #17
  store i32 0, ptr %5, align 4, !tbaa !57
  br label %10

10:                                               ; preds = %52, %1
  %11 = load i32, ptr %5, align 4, !tbaa !57
  %12 = load i32, ptr %4, align 4, !tbaa !57
  %13 = icmp slt i32 %11, %12
  br i1 %13, label %15, label %14

14:                                               ; preds = %10
  store i32 2, ptr %6, align 4
  call void @llvm.lifetime.end.p0(i64 4, ptr %5) #17
  br label %55

15:                                               ; preds = %10
  %16 = getelementptr inbounds nuw %"class.Ipopt::DenseSymMatrix", ptr %8, i32 0, i32 2
  %17 = load ptr, ptr %16, align 8, !tbaa !31
  %18 = load i32, ptr %5, align 4, !tbaa !57
  %19 = load i32, ptr %5, align 4, !tbaa !57
  %20 = load i32, ptr %4, align 4, !tbaa !57
  %21 = mul nsw i32 %19, %20
  %22 = add nsw i32 %18, %21
  %23 = sext i32 %22 to i64
  %24 = getelementptr inbounds double, ptr %17, i64 %23
  %25 = load double, ptr %24, align 8, !tbaa !39
  %26 = load double, ptr %3, align 8, !tbaa !39
  %27 = fadd double %26, %25
  store double %27, ptr %3, align 8, !tbaa !39
  call void @llvm.lifetime.start.p0(i64 4, ptr %7) #17
  %28 = load i32, ptr %5, align 4, !tbaa !57
  %29 = add nsw i32 %28, 1
  store i32 %29, ptr %7, align 4, !tbaa !57
  br label %30

30:                                               ; preds = %48, %15
  %31 = load i32, ptr %7, align 4, !tbaa !57
  %32 = load i32, ptr %4, align 4, !tbaa !57
  %33 = icmp slt i32 %31, %32
  br i1 %33, label %35, label %34

34:                                               ; preds = %30
  store i32 5, ptr %6, align 4
  call void @llvm.lifetime.end.p0(i64 4, ptr %7) #17
  br label %51

35:                                               ; preds = %30
  %36 = getelementptr inbounds nuw %"class.Ipopt::DenseSymMatrix", ptr %8, i32 0, i32 2
  %37 = load ptr, ptr %36, align 8, !tbaa !31
  %38 = load i32, ptr %7, align 4, !tbaa !57
  %39 = load i32, ptr %5, align 4, !tbaa !57
  %40 = load i32, ptr %4, align 4, !tbaa !57
  %41 = mul nsw i32 %39, %40
  %42 = add nsw i32 %38, %41
  %43 = sext i32 %42 to i64
  %44 = getelementptr inbounds double, ptr %37, i64 %43
  %45 = load double, ptr %44, align 8, !tbaa !39
  %46 = load double, ptr %3, align 8, !tbaa !39
  %47 = fadd double %46, %45
  store double %47, ptr %3, align 8, !tbaa !39
  br label %48

48:                                               ; preds = %35
  %49 = load i32, ptr %7, align 4, !tbaa !57
  %50 = add nsw i32 %49, 1
  store i32 %50, ptr %7, align 4, !tbaa !57
  br label %30, !llvm.loop !89

51:                                               ; preds = %34
  br label %52

52:                                               ; preds = %51
  %53 = load i32, ptr %5, align 4, !tbaa !57
  %54 = add nsw i32 %53, 1
  store i32 %54, ptr %5, align 4, !tbaa !57
  br label %10, !llvm.loop !90

55:                                               ; preds = %14
  %56 = load double, ptr %3, align 8, !tbaa !39
  %57 = call noundef zeroext i1 @_ZN5Ipopt14IsFiniteNumberEd(double noundef %56)
  store i32 1, ptr %6, align 4
  call void @llvm.lifetime.end.p0(i64 4, ptr %4) #17
  call void @llvm.lifetime.end.p0(i64 8, ptr %3) #17
  ret i1 %57
}