; Function Attrs: mustprogress uwtable
define noundef zeroext i1 @_ZNK5Ipopt14DenseSymMatrix19HasValidNumbersImplEv(ptr noundef nonnull readonly align 8 captures(none) dereferenceable(97) %0) unnamed_addr #1 align 2 {
  %2 = getelementptr inbounds nuw i8, ptr %0, i64 72
  %3 = load ptr, ptr %2, align 8, !tbaa !25
  %4 = getelementptr inbounds nuw i8, ptr %3, i64 12
  %5 = load i32, ptr %4, align 4, !tbaa !34
  %6 = icmp sgt i32 %5, 0
  br i1 %6, label %.lr.ph23, label %._crit_edge

.lr.ph23:                                         ; preds = %1
  %7 = getelementptr inbounds nuw i8, ptr %0, i64 88
  %8 = load ptr, ptr %7, align 8, !tbaa !35
  %9 = zext nneg i32 %5 to i64
  %10 = zext nneg i32 %5 to i64
  br label %12

.loopexit:                                        ; preds = %.lr.ph, %12
  %.1.lcssa = phi double [ %18, %12 ], [ %22, %.lr.ph ]
  %indvars.iv.next = add nuw nsw i64 %indvars.iv, 1
  %exitcond32.not = icmp eq i64 %indvars.iv.next29, %9
  br i1 %exitcond32.not, label %._crit_edge, label %12, !llvm.loop !111

._crit_edge:                                      ; preds = %.loopexit, %1
  %.017.lcssa = phi double [ 0.000000e+00, %1 ], [ %.1.lcssa, %.loopexit ]
  %11 = tail call noundef zeroext i1 @_ZN5Ipopt14IsFiniteNumberEd(double noundef %.017.lcssa)
  ret i1 %11

12:                                               ; preds = %.lr.ph23, %.loopexit
  %indvars.iv28 = phi i64 [ 0, %.lr.ph23 ], [ %indvars.iv.next29, %.loopexit ]
  %indvars.iv = phi i64 [ 1, %.lr.ph23 ], [ %indvars.iv.next, %.loopexit ]
  %.01721 = phi double [ 0.000000e+00, %.lr.ph23 ], [ %.1.lcssa, %.loopexit ]
  %indvars30 = trunc i64 %indvars.iv28 to i32
  %13 = mul nuw nsw i32 %5, %indvars30
  %14 = zext i32 %13 to i64
  %15 = getelementptr inbounds nuw double, ptr %8, i64 %indvars.iv28
  %16 = getelementptr inbounds nuw double, ptr %15, i64 %14
  %17 = load double, ptr %16, align 8, !tbaa !55
  %18 = fadd double %.01721, %17
  %indvars.iv.next29 = add nuw nsw i64 %indvars.iv28, 1
  %19 = icmp samesign ult i64 %indvars.iv.next29, %10
  br i1 %19, label %.lr.ph.preheader, label %.loopexit

.lr.ph.preheader:                                 ; preds = %12
  %20 = mul nuw nsw i64 %indvars.iv28, %9
  %invariant.gep = getelementptr inbounds nuw double, ptr %8, i64 %20
  br label %.lr.ph

.lr.ph:                                           ; preds = %.lr.ph.preheader, %.lr.ph
  %indvars.iv25 = phi i64 [ %indvars.iv, %.lr.ph.preheader ], [ %indvars.iv.next26, %.lr.ph ]
  %.119 = phi double [ %18, %.lr.ph.preheader ], [ %22, %.lr.ph ]
  %gep = getelementptr inbounds nuw double, ptr %invariant.gep, i64 %indvars.iv25
  %21 = load double, ptr %gep, align 8, !tbaa !55
  %22 = fadd double %.119, %21
  %indvars.iv.next26 = add nuw nsw i64 %indvars.iv25, 1
  %exitcond.not = icmp eq i64 %indvars.iv.next26, %9
  br i1 %exitcond.not, label %.loopexit, label %.lr.ph, !llvm.loop !112
}